target datalayout = "e-m:e-p270:32:32-p271:32:32-p272:64:64-i64:64-i128:128-f80:128-n8:16:32:64-S128"
target triple = "x86_64-pc-linux-gnu"

@.str.37 = private unnamed_addr constant [6 x i8] c"DEBUG\00", align 1
@.str.38 = private unnamed_addr constant [4 x i8] c"LOG\00", align 1
@.str.39 = private unnamed_addr constant [5 x i8] c"INFO\00", align 1
@.str.40 = private unnamed_addr constant [7 x i8] c"NOTICE\00", align 1
@.str.41 = private unnamed_addr constant [8 x i8] c"WARNING\00", align 1
@.str.42 = private unnamed_addr constant [6 x i8] c"ERROR\00", align 1
@.str.43 = private unnamed_addr constant [6 x i8] c"FATAL\00", align 1
@.str.44 = private unnamed_addr constant [6 x i8] c"PANIC\00", align 1
@.str.45 = private unnamed_addr constant [4 x i8] c"???\00", align 1

; Function Attrs: nounwind uwtable
define dso_local ptr @error_severity(i32 noundef %0) #0 {
  %2 = alloca i32, align 4
  %3 = alloca ptr, align 8
  store i32 %0, ptr %2, align 4
  call void @llvm.lifetime.start.p0(i64 8, ptr %3) #16
  %4 = load i32, ptr %2, align 4
  switch i32 %4, label %13 [
    i32 14, label %5
    i32 13, label %5
    i32 12, label %5
    i32 11, label %5
    i32 10, label %5
    i32 15, label %6
    i32 16, label %6
    i32 17, label %7
    i32 18, label %8
    i32 19, label %9
    i32 20, label %9
    i32 21, label %10
    i32 22, label %11
    i32 23, label %12
  ]

5:                                                ; preds = %1, %1, %1, %1, %1
  store ptr @.str.37, ptr %3, align 8
  br label %14

6:                                                ; preds = %1, %1
  store ptr @.str.38, ptr %3, align 8
  br label %14

7:                                                ; preds = %1
  store ptr @.str.39, ptr %3, align 8
  br label %14

8:                                                ; preds = %1
  store ptr @.str.40, ptr %3, align 8
  br label %14

9:                                                ; preds = %1, %1
  store ptr @.str.41, ptr %3, align 8
  br label %14

10:                                               ; preds = %1
  store ptr @.str.42, ptr %3, align 8
  br label %14

11:                                               ; preds = %1
  store ptr @.str.43, ptr %3, align 8
  br label %14

12:                                               ; preds = %1
  store ptr @.str.44, ptr %3, align 8
  br label %14

13:                                               ; preds = %1
  store ptr @.str.45, ptr %3, align 8
  br label %14

14:                                               ; preds = %13, %12, %11, %10, %9, %8, %7, %6, %5
  %15 = load ptr, ptr %3, align 8
  call void @llvm.lifetime.end.p0(i64 8, ptr %3) #16
  ret ptr %15
}