; Function Attrs: mustprogress nofree norecurse nosync nounwind willreturn memory(none) uwtable
define dso_local noundef nonnull ptr @error_severity(i32 noundef %0) local_unnamed_addr #27 {
  %switch.tableidx = add i32 %0, -10
  %2 = icmp ult i32 %switch.tableidx, 14
  br i1 %2, label %switch.lookup, label %4

switch.lookup:                                    ; preds = %1
  %3 = zext nneg i32 %switch.tableidx to i64
  %switch.gep = getelementptr inbounds nuw [14 x ptr], ptr @switch.table.error_severity, i64 0, i64 %3
  %switch.load = load ptr, ptr %switch.gep, align 8
  br label %4

4:                                                ; preds = %1, %switch.lookup
  %.0 = phi ptr [ %switch.load, %switch.lookup ], [ @.str.45, %1 ]
  ret ptr %.0
}